; Function Attrs: null_pointer_is_valid sspstrong uwtable
define internal fastcc ptr @prefs_find_preference_with_submodule(ptr noundef %0, ptr noundef %1, ptr noundef writeonly captures(address_is_null) %2) unnamed_addr #1 {
  %4 = alloca %struct.find_pref_arg_t, align 8
  call void @llvm.lifetime.start.p0(i64 24, ptr nonnull %4) #25
  %5 = icmp eq ptr %0, null
  br i1 %5, label %.thread21, label %6

6:                                                ; preds = %3
  %7 = getelementptr inbounds nuw i8, ptr %0, i64 40
  %8 = load ptr, ptr %7, align 8
  %9 = tail call ptr @g_list_find_custom(ptr noundef %8, ptr noundef %1, ptr noundef nonnull @preference_match)
  %10 = getelementptr inbounds nuw i8, ptr %4, i64 16
  store ptr null, ptr %10, align 8
  %11 = icmp eq ptr %9, null
  br i1 %11, label %12, label %.thread

12:                                               ; preds = %6
  store ptr null, ptr %4, align 8
  %13 = getelementptr inbounds nuw i8, ptr %0, i64 56
  %14 = load ptr, ptr %13, align 8
  %.not = icmp eq ptr %14, null
  br i1 %.not, label %.thread21, label %15

15:                                               ; preds = %12
  %16 = getelementptr inbounds nuw i8, ptr %4, i64 8
  store ptr %1, ptr %16, align 8
  %17 = call zeroext i1 @wmem_tree_foreach(ptr noundef nonnull %14, ptr noundef nonnull @module_find_pref_cb, ptr noundef nonnull %4)
  %.pr = load ptr, ptr %4, align 8
  %18 = icmp eq ptr %.pr, null
  br i1 %18, label %.thread21, label %.thread

.thread:                                          ; preds = %6, %15
  %.020 = phi ptr [ %.pr, %15 ], [ %9, %6 ]
  %.not17 = icmp eq ptr %2, null
  br i1 %.not17, label %22, label %19

19:                                               ; preds = %.thread
  %20 = load ptr, ptr %10, align 8
  %.not18 = icmp eq ptr %20, null
  %21 = select i1 %.not18, ptr %0, ptr %20
  store ptr %21, ptr %2, align 8
  br label %22

22:                                               ; preds = %19, %.thread
  %23 = load ptr, ptr %.020, align 8
  br label %.thread21

.thread21:                                        ; preds = %12, %15, %3, %22
  %.013 = phi ptr [ %23, %22 ], [ null, %3 ], [ null, %15 ], [ null, %12 ]
  call void @llvm.lifetime.end.p0(i64 24, ptr nonnull %4) #25
  ret ptr %.013
}